; Function Attrs: nounwind uwtable
define internal ptr @proxy_richcompare(ptr noundef %0, ptr noundef %1, i32 noundef %2) #0 {
  %4 = getelementptr i8, ptr %0, i64 8
  %.val = load ptr, ptr %4, align 8, !tbaa !4
  %.not = icmp eq ptr %.val, @_PyWeakref_ProxyType
  %.not43 = icmp eq ptr %.val, @_PyWeakref_CallableProxyType
  %or.cond = or i1 %.not, %.not43
  br i1 %or.cond, label %5, label %12

5:                                                ; preds = %3
  %6 = getelementptr i8, ptr %0, i64 16
  %.val28 = load ptr, ptr %6, align 8, !tbaa !37
  %7 = icmp eq ptr %.val28, @_Py_NoneStruct
  br i1 %7, label %proxy_check_ref.exit, label %8

8:                                                ; preds = %5
  %.val.i.i = load i32, ptr %.val28, align 8, !tbaa !42
  %.not.i.i = icmp eq i32 %.val.i.i, 0
  br i1 %.not.i.i, label %proxy_check_ref.exit, label %9

9:                                                ; preds = %8
  %10 = icmp slt i32 %.val.i.i, 0
  br i1 %10, label %Py_INCREF.exit, label %Py_INCREF.exit.sink.split

proxy_check_ref.exit:                             ; preds = %8, %5
  %11 = load ptr, ptr @PyExc_ReferenceError, align 8, !tbaa !45
  tail call void @PyErr_SetString(ptr noundef %11, ptr noundef nonnull @.str.21) #6
  br label %Py_DECREF.exit22

12:                                               ; preds = %3
  %13 = load i32, ptr %0, align 8, !tbaa !42
  %14 = icmp slt i32 %13, 0
  br i1 %14, label %Py_INCREF.exit, label %Py_INCREF.exit.sink.split

Py_INCREF.exit.sink.split:                        ; preds = %12, %9
  %.val.i.i.sink = phi i32 [ %.val.i.i, %9 ], [ %13, %12 ]
  %.val28.sink = phi ptr [ %.val28, %9 ], [ %0, %12 ]
  %15 = add nuw i32 %.val.i.i.sink, 1
  store i32 %15, ptr %.val28.sink, align 8, !tbaa !42
  br label %Py_INCREF.exit

Py_INCREF.exit:                                   ; preds = %Py_INCREF.exit.sink.split, %9, %12
  %.016 = phi ptr [ %0, %12 ], [ %.val28, %9 ], [ %.val28.sink, %Py_INCREF.exit.sink.split ]
  %16 = getelementptr i8, ptr %1, i64 8
  %.val26 = load ptr, ptr %16, align 8, !tbaa !4
  %.not44 = icmp eq ptr %.val26, @_PyWeakref_ProxyType
  %.not45 = icmp eq ptr %.val26, @_PyWeakref_CallableProxyType
  %or.cond46 = or i1 %.not44, %.not45
  br i1 %or.cond46, label %17, label %24

17:                                               ; preds = %Py_INCREF.exit
  %18 = getelementptr i8, ptr %1, i64 16
  %.val29 = load ptr, ptr %18, align 8, !tbaa !37
  %19 = icmp eq ptr %.val29, @_Py_NoneStruct
  br i1 %19, label %proxy_check_ref.exit34, label %20

20:                                               ; preds = %17
  %.val.i.i30 = load i32, ptr %.val29, align 8, !tbaa !42
  %.not.i.i31 = icmp eq i32 %.val.i.i30, 0
  br i1 %.not.i.i31, label %proxy_check_ref.exit34, label %21

21:                                               ; preds = %20
  %22 = icmp slt i32 %.val.i.i30, 0
  br i1 %22, label %Py_INCREF.exit23, label %Py_INCREF.exit23.sink.split

proxy_check_ref.exit34:                           ; preds = %20, %17
  %23 = load ptr, ptr @PyExc_ReferenceError, align 8, !tbaa !45
  tail call void @PyErr_SetString(ptr noundef %23, ptr noundef nonnull @.str.21) #6
  br label %Py_DECREF.exit22

24:                                               ; preds = %Py_INCREF.exit
  %25 = load i32, ptr %1, align 8, !tbaa !42
  %26 = icmp slt i32 %25, 0
  br i1 %26, label %Py_INCREF.exit23, label %Py_INCREF.exit23.sink.split

Py_INCREF.exit23.sink.split:                      ; preds = %24, %21
  %.val.i.i30.sink = phi i32 [ %.val.i.i30, %21 ], [ %25, %24 ]
  %.val29.sink = phi ptr [ %.val29, %21 ], [ %1, %24 ]
  %27 = add nuw i32 %.val.i.i30.sink, 1
  store i32 %27, ptr %.val29.sink, align 8, !tbaa !42
  br label %Py_INCREF.exit23

Py_INCREF.exit23:                                 ; preds = %Py_INCREF.exit23.sink.split, %21, %24
  %.017 = phi ptr [ %1, %24 ], [ %.val29, %21 ], [ %.val29.sink, %Py_INCREF.exit23.sink.split ]
  %28 = tail call ptr @PyObject_RichCompare(ptr noundef nonnull %.016, ptr noundef nonnull %.017, i32 noundef %2) #6
  %29 = load i32, ptr %.016, align 8, !tbaa !42
  %.not.i = icmp sgt i32 %29, -1
  br i1 %.not.i, label %30, label %Py_DECREF.exit

30:                                               ; preds = %Py_INCREF.exit23
  %31 = add nsw i32 %29, -1
  store i32 %31, ptr %.016, align 8, !tbaa !42
  %32 = icmp eq i32 %31, 0
  br i1 %32, label %33, label %Py_DECREF.exit

33:                                               ; preds = %30
  tail call void @_Py_Dealloc(ptr noundef nonnull %.016) #6
  br label %Py_DECREF.exit

Py_DECREF.exit:                                   ; preds = %Py_INCREF.exit23, %30, %33
  %34 = load i32, ptr %.017, align 8, !tbaa !42
  %.not.i21 = icmp sgt i32 %34, -1
  br i1 %.not.i21, label %35, label %Py_DECREF.exit22

35:                                               ; preds = %Py_DECREF.exit
  %36 = add nsw i32 %34, -1
  store i32 %36, ptr %.017, align 8, !tbaa !42
  %37 = icmp eq i32 %36, 0
  br i1 %37, label %38, label %Py_DECREF.exit22

38:                                               ; preds = %35
  tail call void @_Py_Dealloc(ptr noundef nonnull %.017) #6
  br label %Py_DECREF.exit22

Py_DECREF.exit22:                                 ; preds = %38, %35, %Py_DECREF.exit, %proxy_check_ref.exit34, %proxy_check_ref.exit
  %.0 = phi ptr [ null, %proxy_check_ref.exit ], [ null, %proxy_check_ref.exit34 ], [ %28, %Py_DECREF.exit ], [ %28, %35 ], [ %28, %38 ]
  ret ptr %.0
}